target datalayout = "e-m:e-p270:32:32-p271:32:32-p272:64:64-i64:64-i128:128-f80:128-n8:16:32:64-S128"
target triple = "x86_64-pc-linux-gnu"

%struct.WasmEdge_Limit = type { i8, i8, i32, i32 }

; Function Attrs: mustprogress nounwind uwtable
define zeroext i1 @WasmEdge_LimitIsEqual(i64 %0, i32 %1, i64 %2, i32 %3) #0 {
  %5 = alloca %struct.WasmEdge_Limit, align 4
  %6 = alloca { i64, i32 }, align 4
  %7 = alloca %struct.WasmEdge_Limit, align 4
  %8 = alloca { i64, i32 }, align 4
  %9 = getelementptr inbounds { i64, i32 }, ptr %6, i32 0, i32 0
  store i64 %0, ptr %9, align 4
  %10 = getelementptr inbounds { i64, i32 }, ptr %6, i32 0, i32 1
  store i32 %1, ptr %10, align 4
  call void @llvm.memcpy.p0.p0.i64(ptr align 4 %5, ptr align 4 %6, i64 12, i1 false)
  %11 = getelementptr inbounds { i64, i32 }, ptr %8, i32 0, i32 0
  store i64 %2, ptr %11, align 4
  %12 = getelementptr inbounds { i64, i32 }, ptr %8, i32 0, i32 1
  store i32 %3, ptr %12, align 4
  call void @llvm.memcpy.p0.p0.i64(ptr align 4 %7, ptr align 4 %8, i64 12, i1 false)
  %13 = getelementptr inbounds %struct.WasmEdge_Limit, ptr %5, i32 0, i32 0
  %14 = load i8, ptr %13, align 4
  %15 = trunc i8 %14 to i1
  %16 = zext i1 %15 to i32
  %17 = getelementptr inbounds %struct.WasmEdge_Limit, ptr %7, i32 0, i32 0
  %18 = load i8, ptr %17, align 4
  %19 = trunc i8 %18 to i1
  %20 = zext i1 %19 to i32
  %21 = icmp eq i32 %16, %20
  br i1 %21, label %22, label %44

22:                                               ; preds = %4
  %23 = getelementptr inbounds %struct.WasmEdge_Limit, ptr %5, i32 0, i32 1
  %24 = load i8, ptr %23, align 1
  %25 = trunc i8 %24 to i1
  %26 = zext i1 %25 to i32
  %27 = getelementptr inbounds %struct.WasmEdge_Limit, ptr %7, i32 0, i32 1
  %28 = load i8, ptr %27, align 1
  %29 = trunc i8 %28 to i1
  %30 = zext i1 %29 to i32
  %31 = icmp eq i32 %26, %30
  br i1 %31, label %32, label %44

32:                                               ; preds = %22
  %33 = getelementptr inbounds %struct.WasmEdge_Limit, ptr %5, i32 0, i32 2
  %34 = load i32, ptr %33, align 4
  %35 = getelementptr inbounds %struct.WasmEdge_Limit, ptr %7, i32 0, i32 2
  %36 = load i32, ptr %35, align 4
  %37 = icmp eq i32 %34, %36
  br i1 %37, label %38, label %44

38:                                               ; preds = %32
  %39 = getelementptr inbounds %struct.WasmEdge_Limit, ptr %5, i32 0, i32 3
  %40 = load i32, ptr %39, align 4
  %41 = getelementptr inbounds %struct.WasmEdge_Limit, ptr %7, i32 0, i32 3
  %42 = load i32, ptr %41, align 4
  %43 = icmp eq i32 %40, %42
  br label %44

44:                                               ; preds = %38, %32, %22, %4
  %45 = phi i1 [ false, %32 ], [ false, %22 ], [ false, %4 ], [ %43, %38 ]
  ret i1 %45
}