; Function Attrs: mustprogress nofree norecurse nosync nounwind willreturn memory(none) uwtable
define zeroext i1 @WasmEdge_LimitIsEqual(i64 %0, i32 %1, i64 %2, i32 %3) local_unnamed_addr #0 {
  %5 = xor i64 %2, %0
  %6 = and i64 %5, 1
  %7 = icmp eq i64 %6, 0
  br i1 %7, label %8, label %11

8:                                                ; preds = %4
  %9 = and i64 %5, -4294967040
  %or.cond = icmp eq i64 %9, 0
  %10 = icmp eq i32 %1, %3
  %spec.select = select i1 %or.cond, i1 %10, i1 false
  br label %11

11:                                               ; preds = %8, %4
  %12 = phi i1 [ false, %4 ], [ %spec.select, %8 ]
  ret i1 %12
}